(dp0
S'0000'
p1
(lp2
S'4a7d1ed414474e4033ac29ccb8653d9b'
p3
aI15000
aF1002.0
aF11657.0
aI0
aI1
aI1
asS'0001'
p4
(lp5
S'25bbdcd06c32d477f7fa1c3e4a91b032'
p6
aI15000
aI0
aF14990.0
aI0
aI1
aI1
asS'0002'
p7
(lp8
S'fcd04e26e900e94b9ed6dd604fed2b64'
p9
aI15000
aI0
aI15000
aI0
aI1
aI1
asS'0003'
p10
(lp11
S'7cd86ecb09aa48c6e620b340f6a74592'
p12
aI15000
aF10.0
aF15010.0
aI0
aI1
aI0
as.