(dp0
S'0000'
p1
(lp2
(lp3
S'2015-01-07 16:33:24.240104'
p4
aS'\xe8\xbd\xac\xe8\xb4\xa6'
p5
aF1200.0
aI0
aF1200.0
aa(lp6
S'2015-01-07 17:41:35.903293'
p7
aS'\xe5\xad\x98\xe6\xac\xbe'
p8
aF1800.0
aF1800.0
aI0
aa(lp9
S'2015-01-07 17:41:45.392884'
p10
ag8
aF100.0
aF100.0
aI0
aa(lp11
S'2015-01-07 17:57:48.400983'
p12
aS'\xe5\x8f\x96\xe6\xac\xbe'
p13
aF105.0
aI0
aF105.0
aa(lp14
S'2015-01-07 17:58:37.329989'
p15
aS'\xe8\xbf\x98\xe6\xac\xbe'
p16
aF100.0
aF100.0
aI0
aa(lp17
S'2015-01-07 23:15:35.440672'
p18
aS'makelove'
p19
aI9000
aI0
aI9000
aa(lp20
S'2015-05-22 16:56:33.038708'
p21
aS'\xe5\xad\x98\xe6\xac\xbe'
p22
aF1000.0
aF1000.0
aI0
aa(lp23
S'2015-05-22 16:57:10.531969'
p24
ag22
aF1.0
aF1.0
aI0
aa(lp25
S'2015-05-22 16:57:20.387534'
p26
ag22
aF1.0
aF1.0
aI0
aasS'0001'
p27
(lp28
(lp29
S'2015-01-07 16:37:29.884820'
p30
aS'\xe8\xbd\xac\xe8\xb4\xa6'
p31
aF105.0
aI0
aF105.0
aa(lp32
S'2015-01-07 17:52:02.276333'
p33
aS'\xe8\xbd\xac\xe8\xb4\xa6'
p34
aF105.0
aI0
aF105.0
aa(lp35
S'2015-01-07 23:18:01.901988'
p36
aS'makelove'
p37
aI1000
aI0
aI1000
aasS'0003'
p38
(lp39
(lp40
S'2015-01-07 18:08:21.231348'
p41
aS'\xe5\xad\x98\xe6\xac\xbe'
p42
aF10.0
aF10.0
aI0
aas.